; Function Attrs: mustprogress nofree norecurse nosync nounwind willreturn memory(read, argmem: readwrite, inaccessiblemem: none) uwtable
define dso_local noundef zeroext i1 @_ZNK4llvm16AArch64InstrInfo17verifyInstructionERKNS_12MachineInstrERNS_9StringRefE(ptr nocapture nonnull readnone align 8 %0, ptr nocapture noundef nonnull readonly align 8 dereferenceable(70) %1, ptr nocapture noundef nonnull writeonly align 8 dereferenceable(16) %2) unnamed_addr #10 align 2 {
  %4 = alloca %"class.llvm::TypeSize", align 8
  %5 = alloca %"class.llvm::TypeSize", align 8
  %6 = alloca i64, align 8
  %7 = alloca i64, align 8
  store i64 0, ptr %4, align 8
  %8 = getelementptr inbounds nuw i8, ptr %4, i64 8
  store i8 0, ptr %8, align 8
  store i64 0, ptr %5, align 8
  %9 = getelementptr inbounds nuw i8, ptr %5, i64 8
  store i8 0, ptr %9, align 8
  %10 = getelementptr inbounds nuw i8, ptr %1, i64 68
  %11 = load i16, ptr %10, align 4
  %12 = zext i16 %11 to i32
  %13 = call noundef zeroext i1 @_ZN4llvm16AArch64InstrInfo12getMemOpInfoEjRNS_8TypeSizeES2_RlS3_(i32 noundef %12, ptr noundef nonnull align 8 dereferenceable(9) %4, ptr noundef nonnull align 8 dereferenceable(9) %5, ptr noundef nonnull align 8 dereferenceable(8) %6, ptr noundef nonnull align 8 dereferenceable(8) %7)
  br i1 %13, label %14, label %36

14:                                               ; preds = %3
  %15 = call noundef i32 @_ZN4llvm16AArch64InstrInfo18getLoadStoreImmIdxEj(i32 noundef %12)
  %16 = getelementptr inbounds nuw i8, ptr %1, i64 32
  %17 = load ptr, ptr %16, align 8
  %18 = zext nneg i32 %15 to i64
  %19 = getelementptr %"class.llvm::MachineOperand", ptr %17, i64 %18
  %20 = load i32, ptr %19, align 8
  %21 = and i32 %20, 255
  %22 = icmp eq i32 %21, 1
  br i1 %22, label %23, label %36

23:                                               ; preds = %14
  %24 = getelementptr i8, ptr %19, i64 -32
  %25 = load i32, ptr %24, align 8
  %26 = and i32 %25, 255
  %27 = icmp eq i32 %26, 5
  br i1 %27, label %36, label %28

28:                                               ; preds = %23
  %29 = getelementptr inbounds nuw i8, ptr %19, i64 16
  %30 = load i64, ptr %29, align 8
  %31 = load i64, ptr %6, align 8
  %32 = icmp slt i64 %30, %31
  %33 = load i64, ptr %7, align 8
  %34 = icmp sgt i64 %30, %33
  %or.cond = select i1 %32, i1 true, i1 %34
  br i1 %or.cond, label %35, label %36

35:                                               ; preds = %28
  store ptr @.str.45, ptr %2, align 8
  %.sroa.2.0..sroa_idx = getelementptr inbounds i8, ptr %2, i64 8
  store i64 46, ptr %.sroa.2.0..sroa_idx, align 8
  br label %36

36:                                               ; preds = %3, %23, %14, %28, %35
  %.0 = phi i1 [ false, %35 ], [ true, %28 ], [ true, %14 ], [ true, %23 ], [ true, %3 ]
  ret i1 %.0
}